target datalayout = "e-m:e-p270:32:32-p271:32:32-p272:64:64-i64:64-i128:128-f80:128-n8:16:32:64-S128"
target triple = "x86_64-pc-linux-gnu"

%"class.open_spiel::solitaire::Card" = type { i32, i32, i32, i8, i32 }

; Function Attrs: mustprogress nounwind uwtable
define void @_ZN10open_spiel9solitaire4CardC2EibNS0_12LocationTypeE(ptr noundef nonnull align 4 dereferenceable(20) %0, i32 noundef %1, i1 noundef zeroext %2, i32 noundef %3) unnamed_addr #5 align 2 {
  %5 = alloca ptr, align 8
  %6 = alloca i32, align 4
  %7 = alloca i8, align 1
  %8 = alloca i32, align 4
  store ptr %0, ptr %5, align 8
  store i32 %1, ptr %6, align 4
  %9 = zext i1 %2 to i8
  store i8 %9, ptr %7, align 1
  store i32 %3, ptr %8, align 4
  %10 = load ptr, ptr %5, align 8
  %11 = getelementptr inbounds nuw %"class.open_spiel::solitaire::Card", ptr %10, i32 0, i32 0
  store i32 14, ptr %11, align 4
  %12 = getelementptr inbounds nuw %"class.open_spiel::solitaire::Card", ptr %10, i32 0, i32 1
  store i32 5, ptr %12, align 4
  %13 = getelementptr inbounds nuw %"class.open_spiel::solitaire::Card", ptr %10, i32 0, i32 2
  %14 = load i32, ptr %8, align 4
  store i32 %14, ptr %13, align 4
  %15 = getelementptr inbounds nuw %"class.open_spiel::solitaire::Card", ptr %10, i32 0, i32 3
  %16 = load i8, ptr %7, align 1
  %17 = trunc i8 %16 to i1
  %18 = zext i1 %17 to i8
  store i8 %18, ptr %15, align 4
  %19 = getelementptr inbounds nuw %"class.open_spiel::solitaire::Card", ptr %10, i32 0, i32 4
  %20 = load i32, ptr %6, align 4
  store i32 %20, ptr %19, align 4
  %21 = getelementptr inbounds nuw %"class.open_spiel::solitaire::Card", ptr %10, i32 0, i32 3
  %22 = load i8, ptr %21, align 4
  %23 = trunc i8 %22 to i1
  br i1 %23, label %62, label %24

24:                                               ; preds = %4
  %25 = getelementptr inbounds nuw %"class.open_spiel::solitaire::Card", ptr %10, i32 0, i32 4
  %26 = load i32, ptr %25, align 4
  switch i32 %26, label %45 [
    i32 99, label %27
    i32 -1, label %30
    i32 -5, label %33
    i32 -4, label %36
    i32 -3, label %39
    i32 -2, label %42
  ]

27:                                               ; preds = %24
  %28 = getelementptr inbounds nuw %"class.open_spiel::solitaire::Card", ptr %10, i32 0, i32 0
  store i32 14, ptr %28, align 4
  %29 = getelementptr inbounds nuw %"class.open_spiel::solitaire::Card", ptr %10, i32 0, i32 1
  store i32 5, ptr %29, align 4
  br label %61

30:                                               ; preds = %24
  %31 = getelementptr inbounds nuw %"class.open_spiel::solitaire::Card", ptr %10, i32 0, i32 0
  store i32 0, ptr %31, align 4
  %32 = getelementptr inbounds nuw %"class.open_spiel::solitaire::Card", ptr %10, i32 0, i32 1
  store i32 0, ptr %32, align 4
  br label %61

33:                                               ; preds = %24
  %34 = getelementptr inbounds nuw %"class.open_spiel::solitaire::Card", ptr %10, i32 0, i32 0
  store i32 0, ptr %34, align 4
  %35 = getelementptr inbounds nuw %"class.open_spiel::solitaire::Card", ptr %10, i32 0, i32 1
  store i32 1, ptr %35, align 4
  br label %61

36:                                               ; preds = %24
  %37 = getelementptr inbounds nuw %"class.open_spiel::solitaire::Card", ptr %10, i32 0, i32 0
  store i32 0, ptr %37, align 4
  %38 = getelementptr inbounds nuw %"class.open_spiel::solitaire::Card", ptr %10, i32 0, i32 1
  store i32 2, ptr %38, align 4
  br label %61

39:                                               ; preds = %24
  %40 = getelementptr inbounds nuw %"class.open_spiel::solitaire::Card", ptr %10, i32 0, i32 0
  store i32 0, ptr %40, align 4
  %41 = getelementptr inbounds nuw %"class.open_spiel::solitaire::Card", ptr %10, i32 0, i32 1
  store i32 3, ptr %41, align 4
  br label %61

42:                                               ; preds = %24
  %43 = getelementptr inbounds nuw %"class.open_spiel::solitaire::Card", ptr %10, i32 0, i32 0
  store i32 0, ptr %43, align 4
  %44 = getelementptr inbounds nuw %"class.open_spiel::solitaire::Card", ptr %10, i32 0, i32 1
  store i32 4, ptr %44, align 4
  br label %61

45:                                               ; preds = %24
  %46 = getelementptr inbounds nuw %"class.open_spiel::solitaire::Card", ptr %10, i32 0, i32 4
  %47 = load i32, ptr %46, align 4
  %48 = sub nsw i32 %47, 1
  %49 = srem i32 %48, 13
  %50 = add nsw i32 1, %49
  %51 = getelementptr inbounds nuw %"class.open_spiel::solitaire::Card", ptr %10, i32 0, i32 0
  store i32 %50, ptr %51, align 4
  %52 = getelementptr inbounds nuw %"class.open_spiel::solitaire::Card", ptr %10, i32 0, i32 4
  %53 = load i32, ptr %52, align 4
  %54 = sub nsw i32 %53, 1
  %55 = sitofp i32 %54 to double
  %56 = fdiv double %55, 1.300000e+01
  %57 = call double @llvm.floor.f64(double %56)
  %58 = fadd double 1.000000e+00, %57
  %59 = fptosi double %58 to i32
  %60 = getelementptr inbounds nuw %"class.open_spiel::solitaire::Card", ptr %10, i32 0, i32 1
  store i32 %59, ptr %60, align 4
  br label %61

61:                                               ; preds = %45, %42, %39, %36, %33, %30, %27
  br label %62

62:                                               ; preds = %61, %4
  ret void
}