; Function Attrs: mustprogress nofree norecurse nosync nounwind willreturn memory(argmem: write) uwtable
define void @_ZN10open_spiel9solitaire4CardC2EibNS0_12LocationTypeE(ptr nocapture noundef nonnull writeonly align 4 dereferenceable(20) %0, i32 noundef %1, i1 noundef zeroext %2, i32 noundef %3) unnamed_addr #8 align 2 {
  %5 = zext i1 %2 to i8
  store i32 14, ptr %0, align 4
  %6 = getelementptr inbounds nuw i8, ptr %0, i64 4
  store i32 5, ptr %6, align 4
  %7 = getelementptr inbounds nuw i8, ptr %0, i64 8
  store i32 %3, ptr %7, align 4
  %8 = getelementptr inbounds nuw i8, ptr %0, i64 12
  store i8 %5, ptr %8, align 4
  %9 = getelementptr inbounds nuw i8, ptr %0, i64 16
  store i32 %1, ptr %9, align 4
  br i1 %2, label %25, label %10

10:                                               ; preds = %4
  switch i32 %1, label %16 [
    i32 99, label %.sink.split
    i32 -1, label %11
    i32 -5, label %12
    i32 -4, label %13
    i32 -3, label %14
    i32 -2, label %15
  ]

11:                                               ; preds = %10
  store i32 0, ptr %0, align 4
  br label %.sink.split

12:                                               ; preds = %10
  store i32 0, ptr %0, align 4
  br label %.sink.split

13:                                               ; preds = %10
  store i32 0, ptr %0, align 4
  br label %.sink.split

14:                                               ; preds = %10
  store i32 0, ptr %0, align 4
  br label %.sink.split

15:                                               ; preds = %10
  store i32 0, ptr %0, align 4
  br label %.sink.split

16:                                               ; preds = %10
  %17 = add nsw i32 %1, -1
  %18 = srem i32 %17, 13
  %19 = add nsw i32 %18, 1
  store i32 %19, ptr %0, align 4
  %20 = sitofp i32 %17 to double
  %21 = fdiv double %20, 1.300000e+01
  %22 = tail call double @llvm.floor.f64(double %21)
  %23 = fadd double %22, 1.000000e+00
  %24 = fptosi double %23 to i32
  br label %.sink.split

.sink.split:                                      ; preds = %10, %16, %15, %14, %13, %12, %11
  %.sink = phi i32 [ 0, %11 ], [ 1, %12 ], [ 2, %13 ], [ 3, %14 ], [ 4, %15 ], [ %24, %16 ], [ 5, %10 ]
  store i32 %.sink, ptr %6, align 4
  br label %25

25:                                               ; preds = %.sink.split, %4
  ret void
}